target datalayout = "e-m:e-p270:32:32-p271:32:32-p272:64:64-i64:64-i128:128-f80:128-n8:16:32:64-S128"
target triple = "x86_64-unknown-linux-gnu"

%struct.EventNotifier = type { i32, i32, i8 }
%struct.VirtQueue = type { %struct.VRing, ptr, i16, i8, i16, i8, i16, i8, i16, i8, i8, i16, i32, i16, ptr, ptr, %struct.EventNotifier, %struct.EventNotifier, i8, %struct.anon }
%struct.VRing = type { i32, i32, i32, i64, i64, i64, ptr }
%struct.anon = type { ptr, ptr }
%struct.VRingMemoryRegionCaches = type { %struct.rcu_head, %struct.MemoryRegionCache, %struct.MemoryRegionCache, %struct.MemoryRegionCache }
%struct.rcu_head = type { ptr, ptr }
%struct.MemoryRegionCache = type { ptr, i64, i64, ptr, %struct.MemoryRegionSection, i8 }
%struct.MemoryRegionSection = type { i128, ptr, ptr, i64, i64, i8, i8, i8 }

@.str.42 = private unnamed_addr constant [27 x i8] c"../qemu/hw/virtio/virtio.c\00", align 1
@__func__.virtio_virtqueue_reset_region_cache = private unnamed_addr constant [36 x i8] c"virtio_virtqueue_reset_region_cache\00", align 1

; Function Attrs: nounwind sspstrong uwtable
define internal void @virtio_virtqueue_reset_region_cache(ptr noundef %vq) #0 {
entry:
  %vq.addr = alloca ptr, align 8
  %caches = alloca ptr, align 8
  %tmp = alloca ptr, align 8
  %atomic-temp = alloca ptr, align 8
  %.atomictmp = alloca ptr, align 8
  %func_type_invalid = alloca i8, align 1
  %tmp11 = alloca ptr, align 8
  store ptr %vq, ptr %vq.addr, align 8
  br label %while.cond

while.cond:                                       ; preds = %do.end, %entry
  br i1 false, label %while.body, label %while.end

while.body:                                       ; preds = %while.cond
  br label %do.body

do.body:                                          ; preds = %while.body
  call void @g_assertion_message_expr(ptr noundef null, ptr noundef @.str.42, i32 noundef 221, ptr noundef @__func__.virtio_virtqueue_reset_region_cache, ptr noundef null) #12
  unreachable

do.end:                                           ; No predecessors!
  br label %while.cond

while.end:                                        ; preds = %while.cond
  %0 = load ptr, ptr %vq.addr, align 8
  %vring = getelementptr inbounds %struct.VirtQueue, ptr %0, i32 0, i32 0
  %caches1 = getelementptr inbounds %struct.VRing, ptr %vring, i32 0, i32 6
  %1 = load atomic i64, ptr %caches1 monotonic, align 8
  store i64 %1, ptr %atomic-temp, align 8
  %2 = load ptr, ptr %atomic-temp, align 8
  store ptr %2, ptr %tmp, align 8
  %3 = load ptr, ptr %tmp, align 8
  store ptr %3, ptr %caches, align 8
  br label %do.body2

do.body2:                                         ; preds = %while.end
  br label %while.cond3

while.cond3:                                      ; preds = %do.end6, %do.body2
  br i1 false, label %while.body4, label %while.end7

while.body4:                                      ; preds = %while.cond3
  br label %do.body5

do.body5:                                         ; preds = %while.body4
  call void @g_assertion_message_expr(ptr noundef null, ptr noundef @.str.42, i32 noundef 222, ptr noundef @__func__.virtio_virtqueue_reset_region_cache, ptr noundef null) #12
  unreachable

do.end6:                                          ; No predecessors!
  br label %while.cond3

while.end7:                                       ; preds = %while.cond3
  %4 = load ptr, ptr %vq.addr, align 8
  %vring8 = getelementptr inbounds %struct.VirtQueue, ptr %4, i32 0, i32 0
  %caches9 = getelementptr inbounds %struct.VRing, ptr %vring8, i32 0, i32 6
  store ptr null, ptr %.atomictmp, align 8
  %5 = load i64, ptr %.atomictmp, align 8
  store atomic i64 %5, ptr %caches9 release, align 8
  br label %do.end10

do.end10:                                         ; preds = %while.end7
  %6 = load ptr, ptr %caches, align 8
  %tobool = icmp ne ptr %6, null
  br i1 %tobool, label %if.then, label %if.end

if.then:                                          ; preds = %do.end10
  %7 = ptrtoint ptr @virtio_free_region_cache to i64
  %8 = ptrtoint ptr @virtio_free_region_cache to i64
  %9 = sub i64 %7, %8
  %10 = trunc i64 %9 to i8
  store i8 %10, ptr %func_type_invalid, align 1
  %11 = load ptr, ptr %caches, align 8
  %rcu = getelementptr inbounds %struct.VRingMemoryRegionCaches, ptr %11, i32 0, i32 0
  store ptr %rcu, ptr %tmp11, align 8
  %12 = load ptr, ptr %tmp11, align 8
  call void @call_rcu1(ptr noundef %12, ptr noundef @virtio_free_region_cache)
  br label %if.end

if.end:                                           ; preds = %if.then, %do.end10
  ret void
}

; Function Attrs: nounwind sspstrong uwtable
define dso_local void @virtio_delete_queue(ptr noundef %vq) #0 {
entry:
  %vq.addr = alloca ptr, align 8
  store ptr %vq, ptr %vq.addr, align 8
  %0 = load ptr, ptr %vq.addr, align 8
  %vring = getelementptr inbounds %struct.VirtQueue, ptr %0, i32 0, i32 0
  %num = getelementptr inbounds %struct.VRing, ptr %vring, i32 0, i32 0
  store i32 0, ptr %num, align 8
  %1 = load ptr, ptr %vq.addr, align 8
  %vring1 = getelementptr inbounds %struct.VirtQueue, ptr %1, i32 0, i32 0
  %num_default = getelementptr inbounds %struct.VRing, ptr %vring1, i32 0, i32 1
  store i32 0, ptr %num_default, align 4
  %2 = load ptr, ptr %vq.addr, align 8
  %handle_output = getelementptr inbounds %struct.VirtQueue, ptr %2, i32 0, i32 14
  store ptr null, ptr %handle_output, align 8
  %3 = load ptr, ptr %vq.addr, align 8
  %used_elems = getelementptr inbounds %struct.VirtQueue, ptr %3, i32 0, i32 1
  %4 = load ptr, ptr %used_elems, align 8
  call void @g_free(ptr noundef %4)
  %5 = load ptr, ptr %vq.addr, align 8
  %used_elems2 = getelementptr inbounds %struct.VirtQueue, ptr %5, i32 0, i32 1
  store ptr null, ptr %used_elems2, align 8
  %6 = load ptr, ptr %vq.addr, align 8
  call void @virtio_virtqueue_reset_region_cache(ptr noundef %6)
  ret void
}