; Function Attrs: nounwind sspstrong uwtable
define dso_local void @virtio_delete_queue(ptr noundef captures(none) initializes((0, 8), (88, 96)) %vq) local_unnamed_addr #0 {
entry:
  store i32 0, ptr %vq, align 8
  %num_default = getelementptr inbounds nuw i8, ptr %vq, i64 4
  store i32 0, ptr %num_default, align 4
  %handle_output = getelementptr inbounds nuw i8, ptr %vq, i64 88
  store ptr null, ptr %handle_output, align 8
  %used_elems = getelementptr inbounds nuw i8, ptr %vq, i64 48
  %0 = load ptr, ptr %used_elems, align 8
  tail call void @g_free(ptr noundef %0) #23
  store ptr null, ptr %used_elems, align 8
  %caches1.i = getelementptr inbounds nuw i8, ptr %vq, i64 40
  %1 = load atomic i64, ptr %caches1.i monotonic, align 8
  store atomic i64 0, ptr %caches1.i release, align 8
  %tobool.not.i = icmp eq i64 %1, 0
  br i1 %tobool.not.i, label %virtio_virtqueue_reset_region_cache.exit, label %if.then.i

if.then.i:                                        ; preds = %entry
  %2 = inttoptr i64 %1 to ptr
  tail call void @call_rcu1(ptr noundef nonnull %2, ptr noundef nonnull @virtio_free_region_cache) #23
  br label %virtio_virtqueue_reset_region_cache.exit

virtio_virtqueue_reset_region_cache.exit:         ; preds = %entry, %if.then.i
  ret void
}